target datalayout = "e-m:e-p270:32:32-p271:32:32-p272:64:64-i64:64-i128:128-f80:128-n8:16:32:64-S128"
target triple = "x86_64-pc-linux-gnu"

; Function Attrs: mustprogress nounwind uwtable
define noundef double @_Z8lm_enormiPKd(i32 noundef %0, ptr noundef %1) #4 {
  %3 = alloca double, align 8
  %4 = alloca i32, align 4
  %5 = alloca ptr, align 8
  %6 = alloca i32, align 4
  %7 = alloca double, align 8
  %8 = alloca double, align 8
  %9 = alloca double, align 8
  %10 = alloca double, align 8
  %11 = alloca double, align 8
  %12 = alloca double, align 8
  %13 = alloca double, align 8
  %14 = alloca double, align 8
  %15 = alloca i32, align 4
  store i32 %0, ptr %4, align 4, !tbaa !3
  store ptr %1, ptr %5, align 8, !tbaa !7
  call void @llvm.lifetime.start.p0(i64 4, ptr %6) #6
  call void @llvm.lifetime.start.p0(i64 8, ptr %7) #6
  call void @llvm.lifetime.start.p0(i64 8, ptr %8) #6
  call void @llvm.lifetime.start.p0(i64 8, ptr %9) #6
  call void @llvm.lifetime.start.p0(i64 8, ptr %10) #6
  call void @llvm.lifetime.start.p0(i64 8, ptr %11) #6
  call void @llvm.lifetime.start.p0(i64 8, ptr %12) #6
  call void @llvm.lifetime.start.p0(i64 8, ptr %13) #6
  call void @llvm.lifetime.start.p0(i64 8, ptr %14) #6
  store double 0.000000e+00, ptr %8, align 8, !tbaa !15
  store double 0.000000e+00, ptr %9, align 8, !tbaa !15
  store double 0.000000e+00, ptr %10, align 8, !tbaa !15
  store double 0.000000e+00, ptr %12, align 8, !tbaa !15
  store double 0.000000e+00, ptr %13, align 8, !tbaa !15
  %16 = call double @sqrt(double noundef 0x7FEFFFFFFFFFFFFF) #6, !tbaa !3
  %17 = load i32, ptr %4, align 4, !tbaa !3
  %18 = sitofp i32 %17 to double
  %19 = fdiv double %16, %18
  store double %19, ptr %7, align 8, !tbaa !15
  store i32 0, ptr %6, align 4, !tbaa !3
  br label %20

20:                                               ; preds = %95, %2
  %21 = load i32, ptr %6, align 4, !tbaa !3
  %22 = load i32, ptr %4, align 4, !tbaa !3
  %23 = icmp slt i32 %21, %22
  br i1 %23, label %24, label %98

24:                                               ; preds = %20
  %25 = load ptr, ptr %5, align 8, !tbaa !7
  %26 = load i32, ptr %6, align 4, !tbaa !3
  %27 = sext i32 %26 to i64
  %28 = getelementptr inbounds double, ptr %25, i64 %27
  %29 = load double, ptr %28, align 8, !tbaa !15
  %30 = call double @llvm.fabs.f64(double %29)
  store double %30, ptr %11, align 8, !tbaa !15
  %31 = load double, ptr %11, align 8, !tbaa !15
  %32 = call double @sqrt(double noundef 0x10000000000000) #6, !tbaa !3
  %33 = fcmp ogt double %31, %32
  br i1 %33, label %34, label %67

34:                                               ; preds = %24
  %35 = load double, ptr %11, align 8, !tbaa !15
  %36 = load double, ptr %7, align 8, !tbaa !15
  %37 = fcmp olt double %35, %36
  br i1 %37, label %38, label %43

38:                                               ; preds = %34
  %39 = load double, ptr %11, align 8, !tbaa !15
  %40 = load double, ptr %11, align 8, !tbaa !15
  %41 = load double, ptr %9, align 8, !tbaa !15
  %42 = call double @llvm.fmuladd.f64(double %39, double %40, double %41)
  store double %42, ptr %9, align 8, !tbaa !15
  br label %66

43:                                               ; preds = %34
  %44 = load double, ptr %11, align 8, !tbaa !15
  %45 = load double, ptr %12, align 8, !tbaa !15
  %46 = fcmp ogt double %44, %45
  br i1 %46, label %47, label %57

47:                                               ; preds = %43
  %48 = load double, ptr %12, align 8, !tbaa !15
  %49 = load double, ptr %11, align 8, !tbaa !15
  %50 = fdiv double %48, %49
  store double %50, ptr %14, align 8, !tbaa !15
  %51 = load double, ptr %8, align 8, !tbaa !15
  %52 = load double, ptr %14, align 8, !tbaa !15
  %53 = fmul double %51, %52
  %54 = load double, ptr %14, align 8, !tbaa !15
  %55 = call double @llvm.fmuladd.f64(double %53, double %54, double 1.000000e+00)
  store double %55, ptr %8, align 8, !tbaa !15
  %56 = load double, ptr %11, align 8, !tbaa !15
  store double %56, ptr %12, align 8, !tbaa !15
  br label %65

57:                                               ; preds = %43
  %58 = load double, ptr %11, align 8, !tbaa !15
  %59 = load double, ptr %12, align 8, !tbaa !15
  %60 = fdiv double %58, %59
  store double %60, ptr %14, align 8, !tbaa !15
  %61 = load double, ptr %14, align 8, !tbaa !15
  %62 = load double, ptr %14, align 8, !tbaa !15
  %63 = load double, ptr %8, align 8, !tbaa !15
  %64 = call double @llvm.fmuladd.f64(double %61, double %62, double %63)
  store double %64, ptr %8, align 8, !tbaa !15
  br label %65

65:                                               ; preds = %57, %47
  br label %66

66:                                               ; preds = %65, %38
  br label %94

67:                                               ; preds = %24
  %68 = load double, ptr %11, align 8, !tbaa !15
  %69 = load double, ptr %13, align 8, !tbaa !15
  %70 = fcmp ogt double %68, %69
  br i1 %70, label %71, label %81

71:                                               ; preds = %67
  %72 = load double, ptr %13, align 8, !tbaa !15
  %73 = load double, ptr %11, align 8, !tbaa !15
  %74 = fdiv double %72, %73
  store double %74, ptr %14, align 8, !tbaa !15
  %75 = load double, ptr %10, align 8, !tbaa !15
  %76 = load double, ptr %14, align 8, !tbaa !15
  %77 = fmul double %75, %76
  %78 = load double, ptr %14, align 8, !tbaa !15
  %79 = call double @llvm.fmuladd.f64(double %77, double %78, double 1.000000e+00)
  store double %79, ptr %10, align 8, !tbaa !15
  %80 = load double, ptr %11, align 8, !tbaa !15
  store double %80, ptr %13, align 8, !tbaa !15
  br label %93

81:                                               ; preds = %67
  %82 = load double, ptr %11, align 8, !tbaa !15
  %83 = fcmp une double %82, 0.000000e+00
  br i1 %83, label %84, label %92

84:                                               ; preds = %81
  %85 = load double, ptr %11, align 8, !tbaa !15
  %86 = load double, ptr %13, align 8, !tbaa !15
  %87 = fdiv double %85, %86
  store double %87, ptr %14, align 8, !tbaa !15
  %88 = load double, ptr %14, align 8, !tbaa !15
  %89 = load double, ptr %14, align 8, !tbaa !15
  %90 = load double, ptr %10, align 8, !tbaa !15
  %91 = call double @llvm.fmuladd.f64(double %88, double %89, double %90)
  store double %91, ptr %10, align 8, !tbaa !15
  br label %92

92:                                               ; preds = %84, %81
  br label %93

93:                                               ; preds = %92, %71
  br label %94

94:                                               ; preds = %93, %66
  br label %95

95:                                               ; preds = %94
  %96 = load i32, ptr %6, align 4, !tbaa !3
  %97 = add nsw i32 %96, 1
  store i32 %97, ptr %6, align 4, !tbaa !3
  br label %20, !llvm.loop !77

98:                                               ; preds = %20
  %99 = load double, ptr %8, align 8, !tbaa !15
  %100 = fcmp une double %99, 0.000000e+00
  br i1 %100, label %101, label %112

101:                                              ; preds = %98
  %102 = load double, ptr %12, align 8, !tbaa !15
  %103 = load double, ptr %8, align 8, !tbaa !15
  %104 = load double, ptr %9, align 8, !tbaa !15
  %105 = load double, ptr %12, align 8, !tbaa !15
  %106 = fdiv double %104, %105
  %107 = load double, ptr %12, align 8, !tbaa !15
  %108 = fdiv double %106, %107
  %109 = fadd double %103, %108
  %110 = call double @sqrt(double noundef %109) #6, !tbaa !3
  %111 = fmul double %102, %110
  store double %111, ptr %3, align 8
  store i32 1, ptr %15, align 4
  br label %145

112:                                              ; preds = %98
  %113 = load double, ptr %9, align 8, !tbaa !15
  %114 = fcmp une double %113, 0.000000e+00
  br i1 %114, label %115, label %140

115:                                              ; preds = %112
  %116 = load double, ptr %9, align 8, !tbaa !15
  %117 = load double, ptr %13, align 8, !tbaa !15
  %118 = fcmp oge double %116, %117
  br i1 %118, label %119, label %130

119:                                              ; preds = %115
  %120 = load double, ptr %9, align 8, !tbaa !15
  %121 = load double, ptr %13, align 8, !tbaa !15
  %122 = load double, ptr %9, align 8, !tbaa !15
  %123 = fdiv double %121, %122
  %124 = load double, ptr %13, align 8, !tbaa !15
  %125 = load double, ptr %10, align 8, !tbaa !15
  %126 = fmul double %124, %125
  %127 = call double @llvm.fmuladd.f64(double %123, double %126, double 1.000000e+00)
  %128 = fmul double %120, %127
  %129 = call double @sqrt(double noundef %128) #6, !tbaa !3
  store double %129, ptr %3, align 8
  store i32 1, ptr %15, align 4
  br label %145

130:                                              ; preds = %115
  %131 = load double, ptr %13, align 8, !tbaa !15
  %132 = load double, ptr %9, align 8, !tbaa !15
  %133 = load double, ptr %13, align 8, !tbaa !15
  %134 = fdiv double %132, %133
  %135 = load double, ptr %13, align 8, !tbaa !15
  %136 = load double, ptr %10, align 8, !tbaa !15
  %137 = call double @llvm.fmuladd.f64(double %135, double %136, double %134)
  %138 = fmul double %131, %137
  %139 = call double @sqrt(double noundef %138) #6, !tbaa !3
  store double %139, ptr %3, align 8
  store i32 1, ptr %15, align 4
  br label %145

140:                                              ; preds = %112
  %141 = load double, ptr %13, align 8, !tbaa !15
  %142 = load double, ptr %10, align 8, !tbaa !15
  %143 = call double @sqrt(double noundef %142) #6, !tbaa !3
  %144 = fmul double %141, %143
  store double %144, ptr %3, align 8
  store i32 1, ptr %15, align 4
  br label %145

145:                                              ; preds = %140, %130, %119, %101
  call void @llvm.lifetime.end.p0(i64 8, ptr %14) #6
  call void @llvm.lifetime.end.p0(i64 8, ptr %13) #6
  call void @llvm.lifetime.end.p0(i64 8, ptr %12) #6
  call void @llvm.lifetime.end.p0(i64 8, ptr %11) #6
  call void @llvm.lifetime.end.p0(i64 8, ptr %10) #6
  call void @llvm.lifetime.end.p0(i64 8, ptr %9) #6
  call void @llvm.lifetime.end.p0(i64 8, ptr %8) #6
  call void @llvm.lifetime.end.p0(i64 8, ptr %7) #6
  call void @llvm.lifetime.end.p0(i64 4, ptr %6) #6
  %146 = load double, ptr %3, align 8
  ret double %146
}