; Function Attrs: mustprogress nofree nounwind memory(write, argmem: readwrite) uwtable
define noundef double @_Z8lm_enormiPKd(i32 noundef %0, ptr noundef readonly captures(none) %1) local_unnamed_addr #4 {
  %3 = sitofp i32 %0 to double
  %4 = fdiv double 0x5FEFFFFFFFFFFFFF, %3
  %5 = icmp sgt i32 %0, 0
  br i1 %5, label %.lr.ph.preheader, label %.thread

.lr.ph.preheader:                                 ; preds = %2
  %wide.trip.count = zext nneg i32 %0 to i64
  br label %.lr.ph

.lr.ph:                                           ; preds = %.lr.ph.preheader, %34
  %indvars.iv = phi i64 [ 0, %.lr.ph.preheader ], [ %indvars.iv.next, %34 ]
  %.076 = phi double [ 0.000000e+00, %.lr.ph.preheader ], [ %.1, %34 ]
  %.06075 = phi double [ 0.000000e+00, %.lr.ph.preheader ], [ %.161, %34 ]
  %.06374 = phi double [ 0.000000e+00, %.lr.ph.preheader ], [ %.164, %34 ]
  %.06573 = phi double [ 0.000000e+00, %.lr.ph.preheader ], [ %.166, %34 ]
  %.06772 = phi double [ 0.000000e+00, %.lr.ph.preheader ], [ %.168, %34 ]
  %6 = getelementptr inbounds nuw double, ptr %1, i64 %indvars.iv
  %7 = load double, ptr %6, align 8, !tbaa !24
  %8 = tail call double @llvm.fabs.f64(double %7)
  %9 = fcmp ogt double %8, 0x2000000000000000
  br i1 %9, label %10, label %23

10:                                               ; preds = %.lr.ph
  %11 = fcmp olt double %8, %4
  br i1 %11, label %12, label %14

12:                                               ; preds = %10
  %13 = tail call double @llvm.fmuladd.f64(double %7, double %7, double %.06573)
  br label %34

14:                                               ; preds = %10
  %15 = fcmp ogt double %8, %.06075
  br i1 %15, label %16, label %20

16:                                               ; preds = %14
  %17 = fdiv double %.06075, %8
  %18 = fmul double %.06772, %17
  %19 = tail call double @llvm.fmuladd.f64(double %18, double %17, double 1.000000e+00)
  br label %34

20:                                               ; preds = %14
  %21 = fdiv double %8, %.06075
  %22 = tail call double @llvm.fmuladd.f64(double %21, double %21, double %.06772)
  br label %34

23:                                               ; preds = %.lr.ph
  %24 = fcmp ogt double %8, %.076
  br i1 %24, label %25, label %29

25:                                               ; preds = %23
  %26 = fdiv double %.076, %8
  %27 = fmul double %.06374, %26
  %28 = tail call double @llvm.fmuladd.f64(double %27, double %26, double 1.000000e+00)
  br label %34

29:                                               ; preds = %23
  %30 = fcmp une double %7, 0.000000e+00
  br i1 %30, label %31, label %34

31:                                               ; preds = %29
  %32 = fdiv double %8, %.076
  %33 = tail call double @llvm.fmuladd.f64(double %32, double %32, double %.06374)
  br label %34

34:                                               ; preds = %16, %20, %12, %29, %31, %25
  %.168 = phi double [ %.06772, %12 ], [ %19, %16 ], [ %22, %20 ], [ %.06772, %25 ], [ %.06772, %31 ], [ %.06772, %29 ]
  %.166 = phi double [ %13, %12 ], [ %.06573, %16 ], [ %.06573, %20 ], [ %.06573, %25 ], [ %.06573, %31 ], [ %.06573, %29 ]
  %.164 = phi double [ %.06374, %12 ], [ %.06374, %16 ], [ %.06374, %20 ], [ %28, %25 ], [ %33, %31 ], [ %.06374, %29 ]
  %.161 = phi double [ %.06075, %12 ], [ %8, %16 ], [ %.06075, %20 ], [ %.06075, %25 ], [ %.06075, %31 ], [ %.06075, %29 ]
  %.1 = phi double [ %.076, %12 ], [ %.076, %16 ], [ %.076, %20 ], [ %8, %25 ], [ %.076, %31 ], [ %.076, %29 ]
  %indvars.iv.next = add nuw nsw i64 %indvars.iv, 1
  %exitcond.not = icmp eq i64 %indvars.iv.next, %wide.trip.count
  br i1 %exitcond.not, label %._crit_edge, label %.lr.ph, !llvm.loop !35

._crit_edge:                                      ; preds = %34
  %35 = fcmp une double %.168, 0.000000e+00
  br i1 %35, label %36, label %42

36:                                               ; preds = %._crit_edge
  %37 = fdiv double %.166, %.161
  %38 = fdiv double %37, %.161
  %39 = fadd double %.168, %38
  %40 = tail call double @sqrt(double noundef %39) #13, !tbaa !36
  %41 = fmul double %.161, %40
  br label %59

42:                                               ; preds = %._crit_edge
  %43 = fcmp une double %.166, 0.000000e+00
  br i1 %43, label %44, label %.thread

44:                                               ; preds = %42
  %45 = fcmp ult double %.166, %.1
  br i1 %45, label %52, label %46

46:                                               ; preds = %44
  %47 = fdiv double %.1, %.166
  %48 = fmul double %.164, %.1
  %49 = tail call double @llvm.fmuladd.f64(double %47, double %48, double 1.000000e+00)
  %50 = fmul double %.166, %49
  %51 = tail call double @sqrt(double noundef %50) #13, !tbaa !36
  br label %59

52:                                               ; preds = %44
  %53 = fdiv double %.166, %.1
  %54 = tail call double @llvm.fmuladd.f64(double %.1, double %.164, double %53)
  %55 = fmul double %.1, %54
  %56 = tail call double @sqrt(double noundef %55) #13, !tbaa !36
  br label %59

.thread:                                          ; preds = %2, %42
  %.063.lcssa8894 = phi double [ %.164, %42 ], [ 0.000000e+00, %2 ]
  %.0.lcssa8993 = phi double [ %.1, %42 ], [ 0.000000e+00, %2 ]
  %57 = tail call double @sqrt(double noundef %.063.lcssa8894) #13, !tbaa !36
  %58 = fmul double %.0.lcssa8993, %57
  br label %59

59:                                               ; preds = %.thread, %52, %46, %36
  %.062 = phi double [ %41, %36 ], [ %51, %46 ], [ %56, %52 ], [ %58, %.thread ]
  ret double %.062
}